target datalayout = "e-m:e-p270:32:32-p271:32:32-p272:64:64-i64:64-i128:128-f80:128-n8:16:32:64-S128"
target triple = "x86_64-pc-linux-gnu"

%struct.dt_iop_rgblevels_params_t = type { i32, i32, [3 x [3 x float]] }

@.str.10 = private unnamed_addr constant [7 x i8] c"levels\00", align 1
@.str.11 = private unnamed_addr constant [10 x i8] c"autoscale\00", align 1
@.str.46 = private unnamed_addr constant [16 x i8] c"preserve_colors\00", align 1
@.str.69 = private unnamed_addr constant [13 x i8] c"levels[0][0]\00", align 1
@.str.70 = private unnamed_addr constant [10 x i8] c"levels[0]\00", align 1

; Function Attrs: nounwind uwtable
define ptr @get_p(ptr noundef %0, ptr noundef %1) #0 {
  %3 = alloca ptr, align 8
  %4 = alloca ptr, align 8
  %5 = alloca ptr, align 8
  %6 = alloca ptr, align 8
  %7 = alloca i32, align 4
  store ptr %0, ptr %4, align 8, !tbaa !124
  store ptr %1, ptr %5, align 8, !tbaa !161
  call void @llvm.lifetime.start.p0(i64 8, ptr %6) #13
  %8 = load ptr, ptr %4, align 8, !tbaa !124
  store ptr %8, ptr %6, align 8, !tbaa !126
  %9 = load ptr, ptr %5, align 8, !tbaa !161
  %10 = call i32 @strcmp(ptr noundef %9, ptr noundef @.str.11) #16
  %11 = icmp ne i32 %10, 0
  br i1 %11, label %15, label %12

12:                                               ; preds = %2
  %13 = load ptr, ptr %6, align 8, !tbaa !126
  %14 = getelementptr inbounds nuw %struct.dt_iop_rgblevels_params_t, ptr %13, i32 0, i32 0
  store ptr %14, ptr %3, align 8
  store i32 1, ptr %7, align 4
  br label %47

15:                                               ; preds = %2
  %16 = load ptr, ptr %5, align 8, !tbaa !161
  %17 = call i32 @strcmp(ptr noundef %16, ptr noundef @.str.46) #16
  %18 = icmp ne i32 %17, 0
  br i1 %18, label %22, label %19

19:                                               ; preds = %15
  %20 = load ptr, ptr %6, align 8, !tbaa !126
  %21 = getelementptr inbounds nuw %struct.dt_iop_rgblevels_params_t, ptr %20, i32 0, i32 1
  store ptr %21, ptr %3, align 8
  store i32 1, ptr %7, align 4
  br label %47

22:                                               ; preds = %15
  %23 = load ptr, ptr %5, align 8, !tbaa !161
  %24 = call i32 @strcmp(ptr noundef %23, ptr noundef @.str.69) #16
  %25 = icmp ne i32 %24, 0
  br i1 %25, label %31, label %26

26:                                               ; preds = %22
  %27 = load ptr, ptr %6, align 8, !tbaa !126
  %28 = getelementptr inbounds nuw %struct.dt_iop_rgblevels_params_t, ptr %27, i32 0, i32 2
  %29 = getelementptr inbounds [3 x [3 x float]], ptr %28, i64 0, i64 0
  %30 = getelementptr inbounds [3 x float], ptr %29, i64 0, i64 0
  store ptr %30, ptr %3, align 8
  store i32 1, ptr %7, align 4
  br label %47

31:                                               ; preds = %22
  %32 = load ptr, ptr %5, align 8, !tbaa !161
  %33 = call i32 @strcmp(ptr noundef %32, ptr noundef @.str.70) #16
  %34 = icmp ne i32 %33, 0
  br i1 %34, label %39, label %35

35:                                               ; preds = %31
  %36 = load ptr, ptr %6, align 8, !tbaa !126
  %37 = getelementptr inbounds nuw %struct.dt_iop_rgblevels_params_t, ptr %36, i32 0, i32 2
  %38 = getelementptr inbounds [3 x [3 x float]], ptr %37, i64 0, i64 0
  store ptr %38, ptr %3, align 8
  store i32 1, ptr %7, align 4
  br label %47

39:                                               ; preds = %31
  %40 = load ptr, ptr %5, align 8, !tbaa !161
  %41 = call i32 @strcmp(ptr noundef %40, ptr noundef @.str.10) #16
  %42 = icmp ne i32 %41, 0
  br i1 %42, label %46, label %43

43:                                               ; preds = %39
  %44 = load ptr, ptr %6, align 8, !tbaa !126
  %45 = getelementptr inbounds nuw %struct.dt_iop_rgblevels_params_t, ptr %44, i32 0, i32 2
  store ptr %45, ptr %3, align 8
  store i32 1, ptr %7, align 4
  br label %47

46:                                               ; preds = %39
  store ptr null, ptr %3, align 8
  store i32 1, ptr %7, align 4
  br label %47

47:                                               ; preds = %46, %43, %35, %26, %19, %12
  call void @llvm.lifetime.end.p0(i64 8, ptr %6) #13
  %48 = load ptr, ptr %3, align 8
  ret ptr %48
}