; Function Attrs: mustprogress nofree nounwind willreturn memory(argmem: read) uwtable
define ptr @get_p(ptr noundef readnone %0, ptr noundef readonly captures(none) %1) local_unnamed_addr #19 {
  %3 = tail call i32 @strcmp(ptr noundef nonnull dereferenceable(1) %1, ptr noundef nonnull dereferenceable(10) @.str.11) #25
  %.not = icmp eq i32 %3, 0
  br i1 %.not, label %19, label %4

4:                                                ; preds = %2
  %5 = tail call i32 @strcmp(ptr noundef nonnull dereferenceable(1) %1, ptr noundef nonnull dereferenceable(16) @.str.46) #25
  %.not12 = icmp eq i32 %5, 0
  br i1 %.not12, label %6, label %8

6:                                                ; preds = %4
  %7 = getelementptr inbounds nuw i8, ptr %0, i64 4
  br label %19

8:                                                ; preds = %4
  %9 = tail call i32 @strcmp(ptr noundef nonnull dereferenceable(1) %1, ptr noundef nonnull dereferenceable(13) @.str.69) #25
  %.not13 = icmp eq i32 %9, 0
  br i1 %.not13, label %10, label %12

10:                                               ; preds = %8
  %11 = getelementptr inbounds nuw i8, ptr %0, i64 8
  br label %19

12:                                               ; preds = %8
  %13 = tail call i32 @strcmp(ptr noundef nonnull dereferenceable(1) %1, ptr noundef nonnull dereferenceable(10) @.str.70) #25
  %.not14 = icmp eq i32 %13, 0
  br i1 %.not14, label %14, label %16

14:                                               ; preds = %12
  %15 = getelementptr inbounds nuw i8, ptr %0, i64 8
  br label %19

16:                                               ; preds = %12
  %17 = tail call i32 @strcmp(ptr noundef nonnull dereferenceable(1) %1, ptr noundef nonnull dereferenceable(7) @.str.10) #25
  %.not15 = icmp eq i32 %17, 0
  %18 = getelementptr inbounds nuw i8, ptr %0, i64 8
  %spec.select = select i1 %.not15, ptr %18, ptr null
  br label %19

19:                                               ; preds = %16, %2, %14, %10, %6
  %.0 = phi ptr [ %15, %14 ], [ %11, %10 ], [ %7, %6 ], [ %0, %2 ], [ %spec.select, %16 ]
  ret ptr %.0
}